; Function Attrs: nounwind uwtable
define internal fastcc void @Vec_IntInsert(ptr noundef nonnull captures(none) %0, i32 noundef range(i32 0, 4) %1, i32 noundef %2) unnamed_addr #0 {
  %4 = getelementptr inbounds nuw i8, ptr %0, i64 4
  %5 = load i32, ptr %4, align 4
  %6 = load i32, ptr %0, align 8
  %7 = icmp eq i32 %5, %6
  br i1 %7, label %8, label %.Vec_IntGrow.exit10_crit_edge.i

.Vec_IntGrow.exit10_crit_edge.i:                  ; preds = %3
  %.phi.trans.insert.i = getelementptr inbounds nuw i8, ptr %0, i64 8
  %.pre.i = load ptr, ptr %.phi.trans.insert.i, align 8
  br label %Vec_IntPush.exit

8:                                                ; preds = %3
  %9 = icmp slt i32 %5, 16
  br i1 %9, label %10, label %18

10:                                               ; preds = %8
  %11 = getelementptr inbounds nuw i8, ptr %0, i64 8
  %12 = load ptr, ptr %11, align 8
  %.not9.i.i = icmp eq ptr %12, null
  br i1 %.not9.i.i, label %15, label %13

13:                                               ; preds = %10
  %14 = tail call dereferenceable_or_null(64) ptr @realloc(ptr noundef nonnull %12, i64 noundef 64) #29
  br label %Vec_IntGrow.exit.i

15:                                               ; preds = %10
  %16 = tail call noalias dereferenceable_or_null(64) ptr @malloc(i64 noundef 64) #30
  br label %Vec_IntGrow.exit.i

Vec_IntGrow.exit.i:                               ; preds = %15, %13
  %17 = phi ptr [ %14, %13 ], [ %16, %15 ]
  store ptr %17, ptr %11, align 8
  store i32 16, ptr %0, align 8
  br label %Vec_IntPush.exit

18:                                               ; preds = %8
  %19 = shl nuw nsw i32 %5, 1
  %20 = getelementptr inbounds nuw i8, ptr %0, i64 8
  %21 = load ptr, ptr %20, align 8
  %.not9.i9.i = icmp eq ptr %21, null
  %22 = zext nneg i32 %19 to i64
  %23 = shl nuw nsw i64 %22, 2
  br i1 %.not9.i9.i, label %26, label %24

24:                                               ; preds = %18
  %25 = tail call ptr @realloc(ptr noundef nonnull %21, i64 noundef %23) #29
  br label %28

26:                                               ; preds = %18
  %27 = tail call noalias ptr @malloc(i64 noundef %23) #30
  br label %28

28:                                               ; preds = %26, %24
  %29 = phi ptr [ %25, %24 ], [ %27, %26 ]
  store ptr %29, ptr %20, align 8
  store i32 %19, ptr %0, align 8
  br label %Vec_IntPush.exit

Vec_IntPush.exit:                                 ; preds = %.Vec_IntGrow.exit10_crit_edge.i, %Vec_IntGrow.exit.i, %28
  %30 = phi ptr [ %.pre.i, %.Vec_IntGrow.exit10_crit_edge.i ], [ %29, %28 ], [ %17, %Vec_IntGrow.exit.i ]
  %31 = load i32, ptr %4, align 4
  %32 = add nsw i32 %31, 1
  store i32 %32, ptr %4, align 4
  %33 = sext i32 %31 to i64
  %34 = getelementptr inbounds i32, ptr %30, i64 %33
  store i32 0, ptr %34, align 4
  %35 = load i32, ptr %4, align 4
  %.011 = add nsw i32 %35, -1
  %36 = icmp sgt i32 %.011, %1
  br i1 %36, label %.lr.ph, label %._crit_edge

.lr.ph:                                           ; preds = %Vec_IntPush.exit
  %37 = getelementptr inbounds nuw i8, ptr %0, i64 8
  %38 = sext i32 %35 to i64
  %39 = add nsw i64 %38, -1
  %40 = zext nneg i32 %1 to i64
  br label %41

41:                                               ; preds = %.lr.ph, %41
  %indvars.iv15 = phi i64 [ %38, %.lr.ph ], [ %indvars.iv.next16, %41 ]
  %indvars.iv = phi i64 [ %39, %.lr.ph ], [ %indvars.iv.next, %41 ]
  %42 = load ptr, ptr %37, align 8
  %43 = getelementptr i32, ptr %42, i64 %indvars.iv15
  %44 = getelementptr i8, ptr %43, i64 -8
  %45 = load i32, ptr %44, align 4
  %46 = getelementptr inbounds nuw i32, ptr %42, i64 %indvars.iv
  store i32 %45, ptr %46, align 4
  %indvars.iv.next = add nsw i64 %indvars.iv, -1
  %47 = icmp sgt i64 %indvars.iv.next, %40
  %indvars.iv.next16 = add nsw i64 %indvars.iv15, -1
  br i1 %47, label %41, label %._crit_edge.loopexit, !llvm.loop !88

._crit_edge.loopexit:                             ; preds = %41
  %48 = trunc nsw i64 %indvars.iv.next to i32
  br label %._crit_edge

._crit_edge:                                      ; preds = %._crit_edge.loopexit, %Vec_IntPush.exit
  %.0.lcssa = phi i32 [ %.011, %Vec_IntPush.exit ], [ %48, %._crit_edge.loopexit ]
  %49 = getelementptr inbounds nuw i8, ptr %0, i64 8
  %50 = load ptr, ptr %49, align 8
  %51 = sext i32 %.0.lcssa to i64
  %52 = getelementptr inbounds i32, ptr %50, i64 %51
  store i32 %2, ptr %52, align 4
  ret void
}